target datalayout = "e-m:e-p270:32:32-p271:32:32-p272:64:64-i64:64-i128:128-f80:128-n8:16:32:64-S128"
target triple = "x86_64-pc-linux-gnu"

%struct._rio = type { ptr, ptr, ptr, ptr, ptr, i64, i64, i64, i64, %union.anon }
%union.anon = type { %struct.anon.2 }
%struct.anon.2 = type { ptr, i64, ptr, i64, i64 }

@.str.8 = private unnamed_addr constant [37 x i8] c"Unknown RDB integer encoding type %d\00", align 1
@SDS_NOINIT = external global ptr, align 8

; Function Attrs: inlinehint nounwind uwtable
define internal i64 @rioRead(ptr noundef %0, ptr noundef %1, i64 noundef %2) #6 {
  %4 = alloca i64, align 8
  %5 = alloca ptr, align 8
  %6 = alloca ptr, align 8
  %7 = alloca i64, align 8
  %8 = alloca i64, align 8
  %9 = alloca i32, align 4
  store ptr %0, ptr %5, align 8, !tbaa !53
  store ptr %1, ptr %6, align 8, !tbaa !55
  store i64 %2, ptr %7, align 8, !tbaa !56
  %10 = load ptr, ptr %5, align 8, !tbaa !53
  %11 = getelementptr inbounds nuw %struct._rio, ptr %10, i32 0, i32 6
  %12 = load i64, ptr %11, align 8, !tbaa !57
  %13 = and i64 %12, 5
  %14 = icmp ne i64 %13, 0
  br i1 %14, label %15, label %16

15:                                               ; preds = %3
  store i64 0, ptr %4, align 8
  br label %80

16:                                               ; preds = %3
  br label %17

17:                                               ; preds = %78, %16
  %18 = load i64, ptr %7, align 8, !tbaa !56
  %19 = icmp ne i64 %18, 0
  br i1 %19, label %20, label %79

20:                                               ; preds = %17
  call void @llvm.lifetime.start.p0(i64 8, ptr %8) #15
  %21 = load ptr, ptr %5, align 8, !tbaa !53
  %22 = getelementptr inbounds nuw %struct._rio, ptr %21, i32 0, i32 8
  %23 = load i64, ptr %22, align 8, !tbaa !59
  %24 = icmp ne i64 %23, 0
  br i1 %24, label %25, label %35

25:                                               ; preds = %20
  %26 = load ptr, ptr %5, align 8, !tbaa !53
  %27 = getelementptr inbounds nuw %struct._rio, ptr %26, i32 0, i32 8
  %28 = load i64, ptr %27, align 8, !tbaa !59
  %29 = load i64, ptr %7, align 8, !tbaa !56
  %30 = icmp ult i64 %28, %29
  br i1 %30, label %31, label %35

31:                                               ; preds = %25
  %32 = load ptr, ptr %5, align 8, !tbaa !53
  %33 = getelementptr inbounds nuw %struct._rio, ptr %32, i32 0, i32 8
  %34 = load i64, ptr %33, align 8, !tbaa !59
  br label %37

35:                                               ; preds = %25, %20
  %36 = load i64, ptr %7, align 8, !tbaa !56
  br label %37

37:                                               ; preds = %35, %31
  %38 = phi i64 [ %34, %31 ], [ %36, %35 ]
  store i64 %38, ptr %8, align 8, !tbaa !56
  %39 = load ptr, ptr %5, align 8, !tbaa !53
  %40 = getelementptr inbounds nuw %struct._rio, ptr %39, i32 0, i32 0
  %41 = load ptr, ptr %40, align 8, !tbaa !66
  %42 = load ptr, ptr %5, align 8, !tbaa !53
  %43 = load ptr, ptr %6, align 8, !tbaa !55
  %44 = load i64, ptr %8, align 8, !tbaa !56
  %45 = call i64 %41(ptr noundef %42, ptr noundef %43, i64 noundef %44)
  %46 = icmp eq i64 %45, 0
  br i1 %46, label %47, label %52

47:                                               ; preds = %37
  %48 = load ptr, ptr %5, align 8, !tbaa !53
  %49 = getelementptr inbounds nuw %struct._rio, ptr %48, i32 0, i32 6
  %50 = load i64, ptr %49, align 8, !tbaa !57
  %51 = or i64 %50, 1
  store i64 %51, ptr %49, align 8, !tbaa !57
  store i64 0, ptr %4, align 8
  store i32 1, ptr %9, align 4
  br label %76

52:                                               ; preds = %37
  %53 = load ptr, ptr %5, align 8, !tbaa !53
  %54 = getelementptr inbounds nuw %struct._rio, ptr %53, i32 0, i32 4
  %55 = load ptr, ptr %54, align 8, !tbaa !60
  %56 = icmp ne ptr %55, null
  br i1 %56, label %57, label %64

57:                                               ; preds = %52
  %58 = load ptr, ptr %5, align 8, !tbaa !53
  %59 = getelementptr inbounds nuw %struct._rio, ptr %58, i32 0, i32 4
  %60 = load ptr, ptr %59, align 8, !tbaa !60
  %61 = load ptr, ptr %5, align 8, !tbaa !53
  %62 = load ptr, ptr %6, align 8, !tbaa !55
  %63 = load i64, ptr %8, align 8, !tbaa !56
  call void %60(ptr noundef %61, ptr noundef %62, i64 noundef %63)
  br label %64

64:                                               ; preds = %57, %52
  %65 = load ptr, ptr %6, align 8, !tbaa !55
  %66 = load i64, ptr %8, align 8, !tbaa !56
  %67 = getelementptr inbounds nuw i8, ptr %65, i64 %66
  store ptr %67, ptr %6, align 8, !tbaa !55
  %68 = load i64, ptr %8, align 8, !tbaa !56
  %69 = load i64, ptr %7, align 8, !tbaa !56
  %70 = sub i64 %69, %68
  store i64 %70, ptr %7, align 8, !tbaa !56
  %71 = load i64, ptr %8, align 8, !tbaa !56
  %72 = load ptr, ptr %5, align 8, !tbaa !53
  %73 = getelementptr inbounds nuw %struct._rio, ptr %72, i32 0, i32 7
  %74 = load i64, ptr %73, align 8, !tbaa !62
  %75 = add i64 %74, %71
  store i64 %75, ptr %73, align 8, !tbaa !62
  store i32 0, ptr %9, align 4
  br label %76

76:                                               ; preds = %64, %47
  call void @llvm.lifetime.end.p0(i64 8, ptr %8) #15
  %77 = load i32, ptr %9, align 4
  switch i32 %77, label %82 [
    i32 0, label %78
    i32 1, label %80
  ]

78:                                               ; preds = %76
  br label %17, !llvm.loop !67

79:                                               ; preds = %17
  store i64 1, ptr %4, align 8
  br label %80

80:                                               ; preds = %79, %76, %15
  %81 = load i64, ptr %4, align 8
  ret i64 %81

82:                                               ; preds = %76
  unreachable
}

; Function Attrs: nounwind uwtable
define dso_local ptr @rdbLoadIntegerObject(ptr noundef %0, i32 noundef %1, i32 noundef %2, ptr noundef %3) #0 {
  %5 = alloca ptr, align 8
  %6 = alloca ptr, align 8
  %7 = alloca i32, align 4
  %8 = alloca i32, align 4
  %9 = alloca ptr, align 8
  %10 = alloca i32, align 4
  %11 = alloca i32, align 4
  %12 = alloca i32, align 4
  %13 = alloca i32, align 4
  %14 = alloca [4 x i8], align 1
  %15 = alloca i64, align 8
  %16 = alloca i32, align 4
  %17 = alloca i16, align 2
  %18 = alloca i32, align 4
  %19 = alloca [21 x i8], align 16
  %20 = alloca ptr, align 8
  %21 = alloca i32, align 4
  store ptr %0, ptr %6, align 8, !tbaa !53
  store i32 %1, ptr %7, align 4, !tbaa !5
  store i32 %2, ptr %8, align 4, !tbaa !5
  store ptr %3, ptr %9, align 8, !tbaa !71
  call void @llvm.lifetime.start.p0(i64 4, ptr %10) #15
  %22 = load i32, ptr %8, align 4, !tbaa !5
  %23 = and i32 %22, 2
  store i32 %23, ptr %10, align 4, !tbaa !5
  call void @llvm.lifetime.start.p0(i64 4, ptr %11) #15
  %24 = load i32, ptr %8, align 4, !tbaa !5
  %25 = and i32 %24, 4
  store i32 %25, ptr %11, align 4, !tbaa !5
  call void @llvm.lifetime.start.p0(i64 4, ptr %12) #15
  %26 = load i32, ptr %8, align 4, !tbaa !5
  %27 = and i32 %26, 24
  store i32 %27, ptr %12, align 4, !tbaa !5
  call void @llvm.lifetime.start.p0(i64 4, ptr %13) #15
  %28 = load i32, ptr %8, align 4, !tbaa !5
  %29 = and i32 %28, 1
  store i32 %29, ptr %13, align 4, !tbaa !5
  call void @llvm.lifetime.start.p0(i64 4, ptr %14) #15
  call void @llvm.lifetime.start.p0(i64 8, ptr %15) #15
  %30 = load i32, ptr %7, align 4, !tbaa !5
  %31 = icmp eq i32 %30, 0
  br i1 %31, label %32, label %42

32:                                               ; preds = %4
  %33 = load ptr, ptr %6, align 8, !tbaa !53
  %34 = getelementptr inbounds [4 x i8], ptr %14, i64 0, i64 0
  %35 = call i64 @rioRead(ptr noundef %33, ptr noundef %34, i64 noundef 1)
  %36 = icmp eq i64 %35, 0
  br i1 %36, label %37, label %38

37:                                               ; preds = %32
  store ptr null, ptr %5, align 8
  store i32 1, ptr %16, align 4
  br label %161

38:                                               ; preds = %32
  %39 = getelementptr inbounds [4 x i8], ptr %14, i64 0, i64 0
  %40 = load i8, ptr %39, align 1, !tbaa !65
  %41 = sext i8 %40 to i64
  store i64 %41, ptr %15, align 8, !tbaa !68
  br label %103

42:                                               ; preds = %4
  %43 = load i32, ptr %7, align 4, !tbaa !5
  %44 = icmp eq i32 %43, 1
  br i1 %44, label %45, label %66

45:                                               ; preds = %42
  call void @llvm.lifetime.start.p0(i64 2, ptr %17) #15
  %46 = load ptr, ptr %6, align 8, !tbaa !53
  %47 = getelementptr inbounds [4 x i8], ptr %14, i64 0, i64 0
  %48 = call i64 @rioRead(ptr noundef %46, ptr noundef %47, i64 noundef 2)
  %49 = icmp eq i64 %48, 0
  br i1 %49, label %50, label %51

50:                                               ; preds = %45
  store ptr null, ptr %5, align 8
  store i32 1, ptr %16, align 4
  br label %63

51:                                               ; preds = %45
  %52 = getelementptr inbounds [4 x i8], ptr %14, i64 0, i64 0
  %53 = load i8, ptr %52, align 1, !tbaa !65
  %54 = zext i8 %53 to i32
  %55 = getelementptr inbounds [4 x i8], ptr %14, i64 0, i64 1
  %56 = load i8, ptr %55, align 1, !tbaa !65
  %57 = zext i8 %56 to i32
  %58 = shl i32 %57, 8
  %59 = or i32 %54, %58
  %60 = trunc i32 %59 to i16
  store i16 %60, ptr %17, align 2, !tbaa !73
  %61 = load i16, ptr %17, align 2, !tbaa !73
  %62 = sext i16 %61 to i64
  store i64 %62, ptr %15, align 8, !tbaa !68
  store i32 0, ptr %16, align 4
  br label %63

63:                                               ; preds = %51, %50
  call void @llvm.lifetime.end.p0(i64 2, ptr %17) #15
  %64 = load i32, ptr %16, align 4
  switch i32 %64, label %161 [
    i32 0, label %65
  ]

65:                                               ; preds = %63
  br label %102

66:                                               ; preds = %42
  %67 = load i32, ptr %7, align 4, !tbaa !5
  %68 = icmp eq i32 %67, 2
  br i1 %68, label %69, label %99

69:                                               ; preds = %66
  call void @llvm.lifetime.start.p0(i64 4, ptr %18) #15
  %70 = load ptr, ptr %6, align 8, !tbaa !53
  %71 = getelementptr inbounds [4 x i8], ptr %14, i64 0, i64 0
  %72 = call i64 @rioRead(ptr noundef %70, ptr noundef %71, i64 noundef 4)
  %73 = icmp eq i64 %72, 0
  br i1 %73, label %74, label %75

74:                                               ; preds = %69
  store ptr null, ptr %5, align 8
  store i32 1, ptr %16, align 4
  br label %96

75:                                               ; preds = %69
  %76 = getelementptr inbounds [4 x i8], ptr %14, i64 0, i64 0
  %77 = load i8, ptr %76, align 1, !tbaa !65
  %78 = zext i8 %77 to i32
  %79 = getelementptr inbounds [4 x i8], ptr %14, i64 0, i64 1
  %80 = load i8, ptr %79, align 1, !tbaa !65
  %81 = zext i8 %80 to i32
  %82 = shl i32 %81, 8
  %83 = or i32 %78, %82
  %84 = getelementptr inbounds [4 x i8], ptr %14, i64 0, i64 2
  %85 = load i8, ptr %84, align 1, !tbaa !65
  %86 = zext i8 %85 to i32
  %87 = shl i32 %86, 16
  %88 = or i32 %83, %87
  %89 = getelementptr inbounds [4 x i8], ptr %14, i64 0, i64 3
  %90 = load i8, ptr %89, align 1, !tbaa !65
  %91 = zext i8 %90 to i32
  %92 = shl i32 %91, 24
  %93 = or i32 %88, %92
  store i32 %93, ptr %18, align 4, !tbaa !5
  %94 = load i32, ptr %18, align 4, !tbaa !5
  %95 = sext i32 %94 to i64
  store i64 %95, ptr %15, align 8, !tbaa !68
  store i32 0, ptr %16, align 4
  br label %96

96:                                               ; preds = %75, %74
  call void @llvm.lifetime.end.p0(i64 4, ptr %18) #15
  %97 = load i32, ptr %16, align 4
  switch i32 %97, label %161 [
    i32 0, label %98
  ]

98:                                               ; preds = %96
  br label %101

99:                                               ; preds = %66
  %100 = load i32, ptr %7, align 4, !tbaa !5
  call void (i32, i32, ptr, ...) @rdbReportError(i32 noundef 1, i32 noundef 301, ptr noundef @.str.8, i32 noundef %100)
  store ptr null, ptr %5, align 8
  store i32 1, ptr %16, align 4
  br label %161

101:                                              ; preds = %98
  br label %102

102:                                              ; preds = %101, %65
  br label %103

103:                                              ; preds = %102, %38
  %104 = load i32, ptr %10, align 4, !tbaa !5
  %105 = icmp ne i32 %104, 0
  br i1 %105, label %112, label %106

106:                                              ; preds = %103
  %107 = load i32, ptr %11, align 4, !tbaa !5
  %108 = icmp ne i32 %107, 0
  br i1 %108, label %112, label %109

109:                                              ; preds = %106
  %110 = load i32, ptr %12, align 4, !tbaa !5
  %111 = icmp ne i32 %110, 0
  br i1 %111, label %112, label %152

112:                                              ; preds = %109, %106, %103
  call void @llvm.lifetime.start.p0(i64 21, ptr %19) #15
  call void @llvm.lifetime.start.p0(i64 8, ptr %20) #15
  call void @llvm.lifetime.start.p0(i64 4, ptr %21) #15
  %113 = getelementptr inbounds [21 x i8], ptr %19, i64 0, i64 0
  %114 = load i64, ptr %15, align 8, !tbaa !68
  %115 = call i32 @ll2string(ptr noundef %113, i64 noundef 21, i64 noundef %114)
  store i32 %115, ptr %21, align 4, !tbaa !5
  %116 = load ptr, ptr %9, align 8, !tbaa !71
  %117 = icmp ne ptr %116, null
  br i1 %117, label %118, label %122

118:                                              ; preds = %112
  %119 = load i32, ptr %21, align 4, !tbaa !5
  %120 = sext i32 %119 to i64
  %121 = load ptr, ptr %9, align 8, !tbaa !71
  store i64 %120, ptr %121, align 8, !tbaa !56
  br label %122

122:                                              ; preds = %118, %112
  %123 = load i32, ptr %10, align 4, !tbaa !5
  %124 = icmp ne i32 %123, 0
  br i1 %124, label %125, label %129

125:                                              ; preds = %122
  %126 = load i32, ptr %21, align 4, !tbaa !5
  %127 = sext i32 %126 to i64
  %128 = call noalias ptr @zmalloc(i64 noundef %127) #17
  store ptr %128, ptr %20, align 8, !tbaa !9
  br label %146

129:                                              ; preds = %122
  %130 = load i32, ptr %11, align 4, !tbaa !5
  %131 = icmp ne i32 %130, 0
  br i1 %131, label %132, label %137

132:                                              ; preds = %129
  %133 = load ptr, ptr @SDS_NOINIT, align 8, !tbaa !9
  %134 = load i32, ptr %21, align 4, !tbaa !5
  %135 = sext i32 %134 to i64
  %136 = call ptr @sdsnewlen(ptr noundef %133, i64 noundef %135)
  store ptr %136, ptr %20, align 8, !tbaa !9
  br label %145

137:                                              ; preds = %129
  %138 = load i32, ptr %21, align 4, !tbaa !5
  %139 = sext i32 %138 to i64
  %140 = load i32, ptr %8, align 4, !tbaa !5
  %141 = and i32 %140, 8
  %142 = icmp ne i32 %141, 0
  %143 = select i1 %142, i32 0, i32 1
  %144 = call ptr @hfieldNew(ptr noundef null, i64 noundef %139, i32 noundef %143)
  store ptr %144, ptr %20, align 8, !tbaa !9
  br label %145

145:                                              ; preds = %137, %132
  br label %146

146:                                              ; preds = %145, %125
  %147 = load ptr, ptr %20, align 8, !tbaa !9
  %148 = getelementptr inbounds [21 x i8], ptr %19, i64 0, i64 0
  %149 = load i32, ptr %21, align 4, !tbaa !5
  %150 = sext i32 %149 to i64
  call void @llvm.memcpy.p0.p0.i64(ptr align 1 %147, ptr align 16 %148, i64 %150, i1 false)
  %151 = load ptr, ptr %20, align 8, !tbaa !9
  store ptr %151, ptr %5, align 8
  store i32 1, ptr %16, align 4
  call void @llvm.lifetime.end.p0(i64 4, ptr %21) #15
  call void @llvm.lifetime.end.p0(i64 8, ptr %20) #15
  call void @llvm.lifetime.end.p0(i64 21, ptr %19) #15
  br label %161

152:                                              ; preds = %109
  %153 = load i32, ptr %13, align 4, !tbaa !5
  %154 = icmp ne i32 %153, 0
  br i1 %154, label %155, label %158

155:                                              ; preds = %152
  %156 = load i64, ptr %15, align 8, !tbaa !68
  %157 = call ptr @createStringObjectFromLongLongForValue(i64 noundef %156)
  store ptr %157, ptr %5, align 8
  store i32 1, ptr %16, align 4
  br label %161

158:                                              ; preds = %152
  %159 = load i64, ptr %15, align 8, !tbaa !68
  %160 = call ptr @createStringObjectFromLongLongWithSds(i64 noundef %159)
  store ptr %160, ptr %5, align 8
  store i32 1, ptr %16, align 4
  br label %161

161:                                              ; preds = %158, %155, %146, %99, %96, %63, %37
  call void @llvm.lifetime.end.p0(i64 8, ptr %15) #15
  call void @llvm.lifetime.end.p0(i64 4, ptr %14) #15
  call void @llvm.lifetime.end.p0(i64 4, ptr %13) #15
  call void @llvm.lifetime.end.p0(i64 4, ptr %12) #15
  call void @llvm.lifetime.end.p0(i64 4, ptr %11) #15
  call void @llvm.lifetime.end.p0(i64 4, ptr %10) #15
  %162 = load ptr, ptr %5, align 8
  ret ptr %162
}