; Function Attrs: nounwind uwtable
define dso_local ptr @rdbLoadIntegerObject(ptr noundef %0, i32 noundef %1, i32 noundef %2, ptr noundef writeonly captures(address_is_null) %3) local_unnamed_addr #0 {
  %5 = alloca [4 x i8], align 4
  %6 = alloca [21 x i8], align 16
  %7 = and i32 %2, 2
  %8 = and i32 %2, 4
  %9 = and i32 %2, 1
  call void @llvm.lifetime.start.p0(i64 4, ptr nonnull %5) #23
  switch i32 %1, label %90 [
    i32 0, label %10
    i32 1, label %36
    i32 2, label %63
  ]

10:                                               ; preds = %4
  %11 = getelementptr inbounds nuw i8, ptr %0, i64 48
  %12 = load i64, ptr %11, align 8, !tbaa !53
  %13 = and i64 %12, 5
  %.not.i = icmp eq i64 %13, 0
  br i1 %.not.i, label %.preheader.i, label %rioRead.exit.thread

.preheader.i:                                     ; preds = %10
  %14 = getelementptr inbounds nuw i8, ptr %0, i64 64
  %15 = getelementptr inbounds nuw i8, ptr %0, i64 32
  %16 = getelementptr inbounds nuw i8, ptr %0, i64 56
  br label %17

17:                                               ; preds = %29, %.preheader.i
  %.02539.i = phi i64 [ 1, %.preheader.i ], [ %31, %29 ]
  %.02738.i = phi ptr [ %5, %.preheader.i ], [ %30, %29 ]
  %18 = load i64, ptr %14, align 8, !tbaa !55
  %.not32.not.i = icmp eq i64 %18, 0
  %19 = call i64 @llvm.umin.i64(i64 %18, i64 %.02539.i)
  %20 = select i1 %.not32.not.i, i64 %.02539.i, i64 %19
  %21 = load ptr, ptr %0, align 8, !tbaa !60
  %22 = call i64 %21(ptr noundef nonnull %0, ptr noundef %.02738.i, i64 noundef %20) #23
  %23 = icmp eq i64 %22, 0
  br i1 %23, label %.thread.i, label %26

.thread.i:                                        ; preds = %17
  %24 = load i64, ptr %11, align 8, !tbaa !53
  %25 = or i64 %24, 1
  store i64 %25, ptr %11, align 8, !tbaa !53
  br label %rioRead.exit.thread

26:                                               ; preds = %17
  %27 = load ptr, ptr %15, align 8, !tbaa !56
  %.not33.i = icmp eq ptr %27, null
  br i1 %.not33.i, label %29, label %28

28:                                               ; preds = %26
  call void %27(ptr noundef nonnull %0, ptr noundef %.02738.i, i64 noundef %20) #23
  br label %29

29:                                               ; preds = %28, %26
  %30 = getelementptr inbounds nuw i8, ptr %.02738.i, i64 %20
  %31 = sub i64 %.02539.i, %20
  %32 = load i64, ptr %16, align 8, !tbaa !58
  %33 = add i64 %32, %20
  store i64 %33, ptr %16, align 8, !tbaa !58
  %.not31.i = icmp eq i64 %31, 0
  br i1 %.not31.i, label %rioRead.exit, label %17

rioRead.exit:                                     ; preds = %29
  %34 = load i8, ptr %5, align 4, !tbaa !59
  %35 = sext i8 %34 to i64
  br label %91

36:                                               ; preds = %4
  %37 = getelementptr inbounds nuw i8, ptr %0, i64 48
  %38 = load i64, ptr %37, align 8, !tbaa !53
  %39 = and i64 %38, 5
  %.not.i52 = icmp eq i64 %39, 0
  br i1 %.not.i52, label %.preheader.i54, label %rioRead.exit.thread

.preheader.i54:                                   ; preds = %36
  %40 = getelementptr inbounds nuw i8, ptr %0, i64 64
  %41 = getelementptr inbounds nuw i8, ptr %0, i64 32
  %42 = getelementptr inbounds nuw i8, ptr %0, i64 56
  br label %43

43:                                               ; preds = %55, %.preheader.i54
  %.02539.i55 = phi i64 [ 2, %.preheader.i54 ], [ %57, %55 ]
  %.02738.i56 = phi ptr [ %5, %.preheader.i54 ], [ %56, %55 ]
  %44 = load i64, ptr %40, align 8, !tbaa !55
  %.not32.not.i57 = icmp eq i64 %44, 0
  %45 = call i64 @llvm.umin.i64(i64 %44, i64 %.02539.i55)
  %46 = select i1 %.not32.not.i57, i64 %.02539.i55, i64 %45
  %47 = load ptr, ptr %0, align 8, !tbaa !60
  %48 = call i64 %47(ptr noundef nonnull %0, ptr noundef %.02738.i56, i64 noundef %46) #23
  %49 = icmp eq i64 %48, 0
  br i1 %49, label %.thread.i60, label %52

.thread.i60:                                      ; preds = %43
  %50 = load i64, ptr %37, align 8, !tbaa !53
  %51 = or i64 %50, 1
  store i64 %51, ptr %37, align 8, !tbaa !53
  br label %rioRead.exit.thread

52:                                               ; preds = %43
  %53 = load ptr, ptr %41, align 8, !tbaa !56
  %.not33.i58 = icmp eq ptr %53, null
  br i1 %.not33.i58, label %55, label %54

54:                                               ; preds = %52
  call void %53(ptr noundef nonnull %0, ptr noundef %.02738.i56, i64 noundef %46) #23
  br label %55

55:                                               ; preds = %54, %52
  %56 = getelementptr inbounds nuw i8, ptr %.02738.i56, i64 %46
  %57 = sub i64 %.02539.i55, %46
  %58 = load i64, ptr %42, align 8, !tbaa !58
  %59 = add i64 %58, %46
  store i64 %59, ptr %42, align 8, !tbaa !58
  %.not31.i59 = icmp eq i64 %57, 0
  br i1 %.not31.i59, label %60, label %43

60:                                               ; preds = %55
  %61 = load i16, ptr %5, align 4
  %62 = sext i16 %61 to i64
  br label %91

63:                                               ; preds = %4
  %64 = getelementptr inbounds nuw i8, ptr %0, i64 48
  %65 = load i64, ptr %64, align 8, !tbaa !53
  %66 = and i64 %65, 5
  %.not.i62 = icmp eq i64 %66, 0
  br i1 %.not.i62, label %.preheader.i64, label %rioRead.exit.thread

.preheader.i64:                                   ; preds = %63
  %67 = getelementptr inbounds nuw i8, ptr %0, i64 64
  %68 = getelementptr inbounds nuw i8, ptr %0, i64 32
  %69 = getelementptr inbounds nuw i8, ptr %0, i64 56
  br label %70

70:                                               ; preds = %82, %.preheader.i64
  %.02539.i65 = phi i64 [ 4, %.preheader.i64 ], [ %84, %82 ]
  %.02738.i66 = phi ptr [ %5, %.preheader.i64 ], [ %83, %82 ]
  %71 = load i64, ptr %67, align 8, !tbaa !55
  %.not32.not.i67 = icmp eq i64 %71, 0
  %72 = call i64 @llvm.umin.i64(i64 %71, i64 %.02539.i65)
  %73 = select i1 %.not32.not.i67, i64 %.02539.i65, i64 %72
  %74 = load ptr, ptr %0, align 8, !tbaa !60
  %75 = call i64 %74(ptr noundef nonnull %0, ptr noundef %.02738.i66, i64 noundef %73) #23
  %76 = icmp eq i64 %75, 0
  br i1 %76, label %.thread.i70, label %79

.thread.i70:                                      ; preds = %70
  %77 = load i64, ptr %64, align 8, !tbaa !53
  %78 = or i64 %77, 1
  store i64 %78, ptr %64, align 8, !tbaa !53
  br label %rioRead.exit.thread

79:                                               ; preds = %70
  %80 = load ptr, ptr %68, align 8, !tbaa !56
  %.not33.i68 = icmp eq ptr %80, null
  br i1 %.not33.i68, label %82, label %81

81:                                               ; preds = %79
  call void %80(ptr noundef nonnull %0, ptr noundef %.02738.i66, i64 noundef %73) #23
  br label %82

82:                                               ; preds = %81, %79
  %83 = getelementptr inbounds nuw i8, ptr %.02738.i66, i64 %73
  %84 = sub i64 %.02539.i65, %73
  %85 = load i64, ptr %69, align 8, !tbaa !58
  %86 = add i64 %85, %73
  store i64 %86, ptr %69, align 8, !tbaa !58
  %.not31.i69 = icmp eq i64 %84, 0
  br i1 %.not31.i69, label %87, label %70

87:                                               ; preds = %82
  %88 = load i32, ptr %5, align 4
  %89 = sext i32 %88 to i64
  br label %91

90:                                               ; preds = %4
  tail call void (i32, i32, ptr, ...) @rdbReportError(i32 noundef 1, i32 noundef 301, ptr noundef nonnull @.str.8, i32 noundef %1)
  br label %rioRead.exit.thread

91:                                               ; preds = %87, %60, %rioRead.exit
  %.039 = phi i64 [ %35, %rioRead.exit ], [ %62, %60 ], [ %89, %87 ]
  %.not47 = icmp eq i32 %7, 0
  %.not48 = icmp eq i32 %8, 0
  %92 = and i32 %2, 30
  %or.cond4.not = icmp eq i32 %92, 0
  br i1 %or.cond4.not, label %112, label %93

93:                                               ; preds = %91
  call void @llvm.lifetime.start.p0(i64 21, ptr nonnull %6) #23
  %94 = call i32 @ll2string(ptr noundef nonnull %6, i64 noundef 21, i64 noundef %.039) #23
  %.not50 = icmp eq ptr %3, null
  br i1 %.not50, label %97, label %95

95:                                               ; preds = %93
  %96 = sext i32 %94 to i64
  store i64 %96, ptr %3, align 8, !tbaa !61
  br label %97

97:                                               ; preds = %95, %93
  br i1 %.not47, label %101, label %98

98:                                               ; preds = %97
  %99 = sext i32 %94 to i64
  %100 = call noalias ptr @zmalloc(i64 noundef %99) #25
  br label %111

101:                                              ; preds = %97
  br i1 %.not48, label %106, label %102

102:                                              ; preds = %101
  %103 = load ptr, ptr @SDS_NOINIT, align 8, !tbaa !52
  %104 = sext i32 %94 to i64
  %105 = call ptr @sdsnewlen(ptr noundef %103, i64 noundef %104) #23
  br label %111

106:                                              ; preds = %101
  %107 = sext i32 %94 to i64
  %108 = lshr i32 %2, 3
  %.lobit = and i32 %108, 1
  %109 = xor i32 %.lobit, 1
  %110 = call ptr @hfieldNew(ptr noundef null, i64 noundef %107, i32 noundef %109) #23
  br label %111

111:                                              ; preds = %102, %106, %98
  %.pre-phi = phi i64 [ %104, %102 ], [ %107, %106 ], [ %99, %98 ]
  %.038 = phi ptr [ %105, %102 ], [ %110, %106 ], [ %100, %98 ]
  call void @llvm.memcpy.p0.p0.i64(ptr align 1 %.038, ptr nonnull align 16 %6, i64 %.pre-phi, i1 false)
  call void @llvm.lifetime.end.p0(i64 21, ptr nonnull %6) #23
  br label %rioRead.exit.thread

112:                                              ; preds = %91
  %.not49 = icmp eq i32 %9, 0
  br i1 %.not49, label %115, label %113

113:                                              ; preds = %112
  %114 = call ptr @createStringObjectFromLongLongForValue(i64 noundef %.039) #23
  br label %rioRead.exit.thread

115:                                              ; preds = %112
  %116 = call ptr @createStringObjectFromLongLongWithSds(i64 noundef %.039) #23
  br label %rioRead.exit.thread

rioRead.exit.thread:                              ; preds = %63, %.thread.i70, %36, %.thread.i60, %.thread.i, %10, %115, %113, %111, %90
  %.0 = phi ptr [ %.038, %111 ], [ %114, %113 ], [ %116, %115 ], [ null, %90 ], [ null, %10 ], [ null, %.thread.i ], [ null, %.thread.i60 ], [ null, %36 ], [ null, %.thread.i70 ], [ null, %63 ]
  call void @llvm.lifetime.end.p0(i64 4, ptr nonnull %5) #23
  ret ptr %.0
}